target datalayout = "e-m:e-p270:32:32-p271:32:32-p272:64:64-i64:64-i128:128-f80:128-n8:16:32:64-S128"
target triple = "x86_64-pc-linux-gnu"

%struct.Qureg = type { i32, i32, i32, i64, i64, i32, i32, %struct.ComplexArray, %struct.ComplexArray, %struct.ComplexArray, ptr, ptr, ptr, ptr, ptr, ptr }
%struct.ComplexArray = type { ptr, ptr }
%struct.QASMLogger = type { ptr, i32, i32, i32 }

; Function Attrs: nounwind uwtable
define void @qasm_recordControlledGate(ptr noundef byval(%struct.Qureg) align 8 %0, i32 noundef %1, i32 noundef %2, i32 noundef %3) #0 {
  %5 = alloca i32, align 4
  %6 = alloca i32, align 4
  %7 = alloca i32, align 4
  %8 = alloca [1 x i32], align 4
  store i32 %1, ptr %5, align 4, !tbaa !25
  store i32 %2, ptr %6, align 4, !tbaa !25
  store i32 %3, ptr %7, align 4, !tbaa !25
  %9 = getelementptr inbounds nuw %struct.Qureg, ptr %0, i32 0, i32 15
  %10 = load ptr, ptr %9, align 8, !tbaa !10
  %11 = getelementptr inbounds nuw %struct.QASMLogger, ptr %10, i32 0, i32 3
  %12 = load i32, ptr %11, align 8, !tbaa !17
  %13 = icmp ne i32 %12, 0
  br i1 %13, label %15, label %14

14:                                               ; preds = %4
  br label %20

15:                                               ; preds = %4
  call void @llvm.lifetime.start.p0(i64 4, ptr %8) #7
  %16 = load i32, ptr %6, align 4, !tbaa !25
  store i32 %16, ptr %8, align 4, !tbaa !25
  %17 = load i32, ptr %5, align 4, !tbaa !25
  %18 = getelementptr inbounds [1 x i32], ptr %8, i64 0, i64 0
  %19 = load i32, ptr %7, align 4, !tbaa !25
  call void @addGateToQASM(ptr noundef byval(%struct.Qureg) align 8 %0, i32 noundef %17, ptr noundef %18, i32 noundef 1, i32 noundef %19, ptr noundef null, i32 noundef 0)
  call void @llvm.lifetime.end.p0(i64 4, ptr %8) #7
  br label %20

20:                                               ; preds = %15, %14
  ret void
}